Certificate:
    Data:
        Version: 3 (0x2)
        Serial Number: 1 (0x1)
    Signature Algorithm: sha256WithRSAEncryption
        Issuer: C=DK, ST=Zealand, O=Test CA
        Validity
            Not Before: Mar 25 10:06:33 2018 GMT
            Not After : Mar 25 10:06:33 2019 GMT
        Subject: C=DK, ST=Zeeland, L=Hellerup, O=P2T Test, CN=TestServer.local
        Subject Public Key Info:
            Public Key Algorithm: rsaEncryption
                Public-Key: (2048 bit)
                Modulus:
                    00:9c:c0:22:db:cc:93:81:48:85:bf:e9:5d:e0:20:
                    e3:61:21:39:6c:21:82:f4:64:14:de:f4:7a:39:60:
                    43:41:b3:93:6e:fc:c8:aa:b1:60:b8:1d:c0:18:12:
                    c0:67:dd:9b:09:94:4f:07:af:30:02:17:ac:de:de:
                    63:78:78:3a:1a:94:37:ee:f9:1f:ff:82:18:48:3f:
                    b3:49:23:d4:cb:93:dc:b2:7c:c9:e2:ce:75:75:b1:
                    58:22:53:28:d9:0b:35:2e:0a:ba:79:04:b0:0b:26:
                    e9:e1:f0:9b:cc:43:d2:b0:10:8f:3e:e0:cc:e4:76:
                    3b:74:67:24:de:ef:5f:9d:51:c7:50:55:95:50:c5:
                    ac:c3:2a:e8:70:93:b7:b0:c9:c1:81:be:5c:4b:dd:
                    9a:71:bc:b6:67:32:86:4e:15:68:d0:62:78:06:d0:
                    a2:01:a4:65:ac:4c:28:4a:be:b9:57:74:62:87:07:
                    ff:86:89:62:ec:6d:e7:fa:27:a1:b4:76:7d:b8:0f:
                    b1:3f:76:fb:58:17:eb:9c:dc:37:13:da:f5:46:7d:
                    a4:92:37:a3:ca:a3:01:b3:f1:7c:63:32:59:32:30:
                    23:7a:b0:f9:3c:3e:2d:85:28:9e:55:a3:12:53:34:
                    1f:2a:fa:0e:33:c6:ad:ca:f4:2b:05:52:5f:4c:3f:
                    8a:eb
                Exponent: 65537 (0x10001)
        X509v3 extensions:
            X509v3 Subject Key Identifier: 
                EF:63:AC:43:07:DA:80:F3:04:79:B5:9A:FA:4D:7E:A2:F6:2A:D0:80
            X509v3 Authority Key Identifier: 
                keyid:BB:C0:EF:DF:A3:24:2B:7B:A0:8E:26:1F:C8:D4:14:1A:9A:85:90:D3

            X509v3 Basic Constraints: 
                CA:FALSE
            X509v3 Key Usage: 
                Digital Signature, Key Encipherment
            X509v3 Subject Alternative Name: 
                DNS:TestServer.local, DNS:TestServer.secure, IP Address:127.0.0.1, IP Address:0:0:0:0:0:0:0:1
            Netscape Comment: 
                OpenSSL Generated Certificate
    Signature Algorithm: sha256WithRSAEncryption
         09:22:f7:4b:c1:9e:08:35:b4:70:a5:2c:f8:96:97:4f:b3:bc:
         b7:29:f1:07:99:10:ea:09:8e:fd:e1:ee:62:d2:0a:64:9d:0f:
         e1:cb:46:24:6c:94:0a:04:9e:1b:0e:b4:b9:b5:23:00:f1:01:
         cb:01:9b:63:d2:a9:93:07:32:77:0c:0a:19:c6:32:8d:cf:20:
         cd:ca:53:e6:ee:97:cb:2e:86:40:9f:ea:a2:78:b0:36:f1:01:
         95:df:cc:91:d4:44:fb:e9:94:21:f1:07:99:b8:6e:f2:38:ce:
         8e:50:21:ed:36:6f:2f:ed:37:20:89:92:4b:eb:01:d7:ef:18:
         9d:cb:7e:62:1f:d2:8a:78:f5:46:3e:cb:e8:c1:d9:0a:13:d4:
         f8:ca:e6:a3:6b:8d:98:b1:8c:02:c2:08:69:8f:25:3a:66:78:
         87:5b:a5:18:4a:ab:81:97:f2:a2:eb:ae:57:7d:0f:ae:da:1c:
         fd:c7:f0:32:a4:e9:2d:a6:eb:2d:a6:77:b2:46:1c:1e:e4:ea:
         ab:cc:b6:89:78:36:96:ef:7a:7a:94:56:49:c7:48:63:3d:64:
         22:0d:a7:52:93:22:ed:ca:dd:6e:b8:09:64:3a:e4:45:0b:04:
         2d:4f:87:16:63:ee:e3:52:56:3f:d5:c6:f1:05:56:63:97:28:
         a2:26:77:04:38:5c:4f:12:99:76:e4:7d:c7:de:a9:3e:92:97:
         9c:7e:51:9e:c2:76:f6:9d:7d:6f:f3:db:c5:12:e5:2d:7f:b3:
         1b:36:74:81:12:60:2d:ac:84:81:84:75:d6:5a:30:1f:16:b6:
         3d:88:c2:c2:c9:f3:26:4e:7d:22:1e:23:3c:67:ec:f0:32:56:
         7e:c0:60:2e:73:11:18:d2:3e:78:55:34:45:4d:bb:b6:ed:f5:
         92:18:63:5a:c1:4b:e3:2d:0a:e5:12:84:47:09:35:ff:03:60:
         49:25:0e:71:d3:d0:1a:06:59:0c:d6:35:28:ec:9f:f1:75:46:
         69:c9:a2:f6:c0:d0:7a:46:08:31:39:d7:8f:3b:e2:ea:cd:78:
         31:80:00:31:90:94:77:43:0c:e2:0d:b3:ad:36:8f:5a:11:17:
         de:75:6d:ba:87:e8:6f:f1:87:74:57:bb:a2:ce:7e:0d:44:0c:
         d5:2c:60:21:20:70:55:3f:a5:9f:27:99:93:c7:41:9f:d1:36:
         74:04:3a:00:5f:8b:e4:dc:66:18:39:f6:c7:d7:1e:3d:c9:b2:
         78:17:b2:0d:9c:44:a2:b0:53:38:b3:63:33:2b:03:41:69:4d:
         73:b4:4c:20:1e:62:93:58:15:be:7e:a3:00:99:4f:10:4c:34:
         2d:d1:5e:94:03:ca:c5:5f
-----BEGIN CERTIFICATE-----
MIIE3jCCAsagAwIBAgIBATANBgkqhkiG9w0BAQsFADAxMQswCQYDVQQGEwJESzEQ
MA4GA1UECAwHWmVhbGFuZDEQMA4GA1UECgwHVGVzdCBDQTAeFw0xODAzMjUxMDA2
MzNaFw0xOTAzMjUxMDA2MzNaMGAxCzAJBgNVBAYTAkRLMRAwDgYDVQQIDAdaZWVs
YW5kMREwDwYDVQQHDAhIZWxsZXJ1cDERMA8GA1UECgwIUDJUIFRlc3QxGTAXBgNV
BAMMEFRlc3RTZXJ2ZXIubG9jYWwwggEiMA0GCSqGSIb3DQEBAQUAA4IBDwAwggEK
AoIBAQCcwCLbzJOBSIW/6V3gIONhITlsIYL0ZBTe9Ho5YENBs5Nu/MiqsWC4HcAY
EsBn3ZsJlE8HrzACF6ze3mN4eDoalDfu+R//ghhIP7NJI9TLk9yyfMniznV1sVgi
UyjZCzUuCrp5BLALJunh8JvMQ9KwEI8+4Mzkdjt0ZyTe71+dUcdQVZVQxazDKuhw
k7ewycGBvlxL3ZpxvLZnMoZOFWjQYngG0KIBpGWsTChKvrlXdGKHB/+GiWLsbef6
J6G0dn24D7E/dvtYF+uc3DcT2vVGfaSSN6PKowGz8XxjMlkyMCN6sPk8Pi2FKJ5V
oxJTNB8q+g4zxq3K9CsFUl9MP4rrAgMBAAGjgdEwgc4wHQYDVR0OBBYEFO9jrEMH
2oDzBHm1mvpNfqL2KtCAMB8GA1UdIwQYMBaAFLvA79+jJCt7oI4mH8jUFBqahZDT
MAkGA1UdEwQCMAAwCwYDVR0PBAQDAgWgMEYGA1UdEQQ/MD2CEFRlc3RTZXJ2ZXIu
bG9jYWyCEVRlc3RTZXJ2ZXIuc2VjdXJlhwR/AAABhxAAAAAAAAAAAAAAAAAAAAAB
MCwGCWCGSAGG+EIBDQQfFh1PcGVuU1NMIEdlbmVyYXRlZCBDZXJ0aWZpY2F0ZTAN
BgkqhkiG9w0BAQsFAAOCAgEACSL3S8GeCDW0cKUs+JaXT7O8tynxB5kQ6gmO/eHu
YtIKZJ0P4ctGJGyUCgSeGw60ubUjAPEBywGbY9KpkwcydwwKGcYyjc8gzcpT5u6X
yy6GQJ/qoniwNvEBld/MkdRE++mUIfEHmbhu8jjOjlAh7TZvL+03IImSS+sB1+8Y
nct+Yh/Sinj1Rj7L6MHZChPU+Mrmo2uNmLGMAsIIaY8lOmZ4h1ulGEqrgZfyouuu
V30Prtoc/cfwMqTpLabrLaZ3skYcHuTqq8y2iXg2lu96epRWScdIYz1kIg2nUpMi
7crdbrgJZDrkRQsELU+HFmPu41JWP9XG8QVWY5cooiZ3BDhcTxKZduR9x96pPpKX
nH5RnsJ29p19b/PbxRLlLX+zGzZ0gRJgLayEgYR11lowHxa2PYjCwsnzJk59Ih4j
PGfs8DJWfsBgLnMRGNI+eFU0RU27tu31khhjWsFL4y0K5RKERwk1/wNgSSUOcdPQ
GgZZDNY1KOyf8XVGacmi9sDQekYIMTnXjzvi6s14MYAAMZCUd0MM4g2zrTaPWhEX
3nVtuofob/GHdFe7os5+DUQM1SxgISBwVT+lnyeZk8dBn9E2dAQ6AF+L5NxmGDn2
x9cePcmyeBeyDZxEorBTOLNjMysDQWlNc7RMIB5ik1gVvn6jAJlPEEw0LdFelAPK
xV8=
-----END CERTIFICATE-----
